; Function Attrs: mustprogress uwtable
define noundef nonnull align 8 dereferenceable(24) ptr @_Z39ggml_backend_cpu_get_extra_buffers_typev() local_unnamed_addr #0 personality ptr @__gxx_personality_v0 {
  %1 = load atomic i8, ptr @_ZGVZ39ggml_backend_cpu_get_extra_buffers_typevE5bufts acquire, align 8
  %2 = icmp eq i8 %1, 0
  br i1 %2, label %3, label %8, !prof !4

3:                                                ; preds = %0
  %4 = tail call i32 @__cxa_guard_acquire(ptr nonnull @_ZGVZ39ggml_backend_cpu_get_extra_buffers_typevE5bufts) #25
  %.not = icmp eq i32 %4, 0
  br i1 %.not, label %8, label %5

5:                                                ; preds = %3
  invoke fastcc void @"_ZZ39ggml_backend_cpu_get_extra_buffers_typevENK3$_0clEv"()
          to label %6 unwind label %9

6:                                                ; preds = %5
  %7 = tail call i32 @__cxa_atexit(ptr nonnull @_ZNSt6vectorIP24ggml_backend_buffer_typeSaIS1_EED2Ev, ptr nonnull @_ZZ39ggml_backend_cpu_get_extra_buffers_typevE5bufts, ptr nonnull @__dso_handle) #25
  tail call void @__cxa_guard_release(ptr nonnull @_ZGVZ39ggml_backend_cpu_get_extra_buffers_typevE5bufts) #25
  br label %8

8:                                                ; preds = %6, %3, %0
  ret ptr @_ZZ39ggml_backend_cpu_get_extra_buffers_typevE5bufts

9:                                                ; preds = %5
  %10 = landingpad { ptr, i32 }
          cleanup
  tail call void @__cxa_guard_abort(ptr nonnull @_ZGVZ39ggml_backend_cpu_get_extra_buffers_typevE5bufts) #25
  resume { ptr, i32 } %10
}